target datalayout = "e-m:e-p270:32:32-p271:32:32-p272:64:64-i64:64-i128:128-f80:128-n8:16:32:64-S128"
target triple = "x86_64-pc-linux-gnu"

%struct.ssl_connection_st = type { %struct.ssl_st, ptr, i32, ptr, ptr, ptr, i32, ptr, i32, i32, i32, i32, %struct.OSSL_TIME, %struct.OSSL_TIME, %struct.ossl_statem_st, i32, ptr, ptr, i64, i64, i64, %struct.ossl_quic_tls_callbacks_st, ptr, ptr, %struct.anon, ptr, ptr, ptr, i32, ptr, %struct.ssl_dane_st, ptr, ptr, ptr, ptr, i32, [64 x i8], [64 x i8], [64 x i8], [64 x i8], [64 x i8], [64 x i8], [64 x i8], [64 x i8], [64 x i8], [64 x i8], [64 x i8], [64 x i8], ptr, [64 x i8], i64, i32, i64, [32 x i8], ptr, ptr, ptr, i64, ptr, [32 x i8], i64, i32, ptr, ptr, i32, i32, ptr, ptr, ptr, ptr, ptr, i64, ptr, ptr, i64, i32, i32, i32, i64, i32, i32, i64, i64, i64, %struct.anon.1, ptr, i32, ptr, ptr, ptr, i32, ptr, ptr, ptr, i32, i32, i32, i32, ptr, i64, i32, ptr, %struct.srp_ctx_st, ptr, %struct.record_layer_st, ptr, ptr, ptr, ptr, i64, i32, i32, i32, i64, i64, i64, ptr, ptr, ptr, ptr, ptr, i64, ptr, i64, ptr, i64 }
%struct.ssl_st = type { i32, ptr, ptr, ptr, %struct.CRYPTO_REF_COUNT, ptr, %struct.crypto_ex_data_st }
%struct.CRYPTO_REF_COUNT = type { i32 }
%struct.crypto_ex_data_st = type { ptr, ptr }
%struct.OSSL_TIME = type { i64 }
%struct.ossl_statem_st = type { i32, i32, i32, i32, i32, i32, i32, i32, i32, i32, i32, i32, i32, ptr, ptr, ptr, i8 }
%struct.ossl_quic_tls_callbacks_st = type { ptr, ptr, ptr, ptr, ptr, ptr }
%struct.anon = type { i64, [32 x i8], [32 x i8], ptr, ptr, i32, i32, i32, i32, [2 x i8], i32, i32, i32, i32, %struct.anon.0, [64 x i8], i64, [64 x i8], i64, i32, i32, ptr, i64, ptr, i64, i32, i8, i8, i16, ptr, i16 }
%struct.anon.0 = type { [128 x i8], i64, [128 x i8], i64, i64, i32, ptr, ptr, [4 x ptr], [4 x i16], i64, i32, ptr, i64, ptr, i64, ptr, ptr, ptr, i32, i64, ptr, i32, ptr, i64, ptr, i64, ptr, i64, ptr, ptr, ptr, ptr, i64, i64, ptr, ptr, i32, i32, i32, i32 }
%struct.ssl_dane_st = type { ptr, ptr, ptr, ptr, ptr, i32, i32, i32, i64 }
%struct.anon.1 = type { [29 x i8], ptr, ptr, ptr, i32, ptr, i16, i32, %struct.anon.2, i32, i32, i64, ptr, i64, ptr, i64, ptr, i64, ptr, i64, ptr, i64, ptr, ptr, ptr, ptr, ptr, ptr, ptr, i64, ptr, i64, i32, i32, i32, i32, ptr, i64, i32, i8, i32, [4 x i32], i32, i8, i8, i8, i8 }
%struct.anon.2 = type { ptr, ptr, ptr, i64 }
%struct.srp_ctx_st = type { ptr, ptr, ptr, ptr, ptr, ptr, ptr, ptr, ptr, ptr, ptr, ptr, ptr, ptr, i32, i64 }
%struct.record_layer_st = type { ptr, ptr, ptr, ptr, ptr, ptr, ptr, ptr, i64, i32, i64, [4 x i8], i64, i64, i8, ptr, i32, ptr, ptr, ptr, i64, i64, i64, i64, [32 x %struct.tls_record_st] }
%struct.tls_record_st = type { ptr, i32, i8, ptr, ptr, i64, i64, i16, [8 x i8] }

@.str = private unnamed_addr constant [24 x i8] c"../openssl/ssl/s3_enc.c\00", align 1
@__func__.ssl3_digest_cached_records = private unnamed_addr constant [27 x i8] c"ssl3_digest_cached_records\00", align 1

; Function Attrs: nounwind uwtable
define i32 @ssl3_digest_cached_records(ptr noundef %0, i32 noundef %1) #0 {
  %3 = alloca i32, align 4
  %4 = alloca ptr, align 8
  %5 = alloca i32, align 4
  %6 = alloca ptr, align 8
  %7 = alloca i64, align 8
  %8 = alloca ptr, align 8
  %9 = alloca i32, align 4
  store ptr %0, ptr %4, align 8, !tbaa !3
  store i32 %1, ptr %5, align 4, !tbaa !8
  call void @llvm.lifetime.start.p0(i64 8, ptr %6) #7
  call void @llvm.lifetime.start.p0(i64 8, ptr %7) #7
  call void @llvm.lifetime.start.p0(i64 8, ptr %8) #7
  %10 = load ptr, ptr %4, align 8, !tbaa !3
  %11 = getelementptr inbounds nuw %struct.ssl_connection_st, ptr %10, i32 0, i32 24
  %12 = getelementptr inbounds nuw %struct.anon, ptr %11, i32 0, i32 4
  %13 = load ptr, ptr %12, align 8, !tbaa !108
  %14 = icmp eq ptr %13, null
  br i1 %14, label %15, label %64

15:                                               ; preds = %2
  %16 = load ptr, ptr %4, align 8, !tbaa !3
  %17 = getelementptr inbounds nuw %struct.ssl_connection_st, ptr %16, i32 0, i32 24
  %18 = getelementptr inbounds nuw %struct.anon, ptr %17, i32 0, i32 3
  %19 = load ptr, ptr %18, align 8, !tbaa !107
  %20 = call i64 @BIO_ctrl(ptr noundef %19, i32 noundef 3, i64 noundef 0, ptr noundef %8)
  store i64 %20, ptr %7, align 8, !tbaa !78
  %21 = load i64, ptr %7, align 8, !tbaa !78
  %22 = icmp sle i64 %21, 0
  br i1 %22, label %23, label %25

23:                                               ; preds = %15
  call void @ERR_new()
  call void @ERR_set_debug(ptr noundef @.str, i32 noundef 282, ptr noundef @__func__.ssl3_digest_cached_records)
  %24 = load ptr, ptr %4, align 8, !tbaa !3
  call void (ptr, i32, i32, ptr, ...) @ossl_statem_fatal(ptr noundef %24, i32 noundef 80, i32 noundef 332, ptr noundef null)
  store i32 0, ptr %3, align 4
  store i32 1, ptr %9, align 4
  br label %77

25:                                               ; preds = %15
  %26 = call ptr @EVP_MD_CTX_new()
  %27 = load ptr, ptr %4, align 8, !tbaa !3
  %28 = getelementptr inbounds nuw %struct.ssl_connection_st, ptr %27, i32 0, i32 24
  %29 = getelementptr inbounds nuw %struct.anon, ptr %28, i32 0, i32 4
  store ptr %26, ptr %29, align 8, !tbaa !108
  %30 = load ptr, ptr %4, align 8, !tbaa !3
  %31 = getelementptr inbounds nuw %struct.ssl_connection_st, ptr %30, i32 0, i32 24
  %32 = getelementptr inbounds nuw %struct.anon, ptr %31, i32 0, i32 4
  %33 = load ptr, ptr %32, align 8, !tbaa !108
  %34 = icmp eq ptr %33, null
  br i1 %34, label %35, label %37

35:                                               ; preds = %25
  call void @ERR_new()
  call void @ERR_set_debug(ptr noundef @.str, i32 noundef 288, ptr noundef @__func__.ssl3_digest_cached_records)
  %36 = load ptr, ptr %4, align 8, !tbaa !3
  call void (ptr, i32, i32, ptr, ...) @ossl_statem_fatal(ptr noundef %36, i32 noundef 80, i32 noundef 524294, ptr noundef null)
  store i32 0, ptr %3, align 4
  store i32 1, ptr %9, align 4
  br label %77

37:                                               ; preds = %25
  %38 = load ptr, ptr %4, align 8, !tbaa !3
  %39 = call ptr @ssl_handshake_md(ptr noundef %38)
  store ptr %39, ptr %6, align 8, !tbaa !74
  %40 = load ptr, ptr %6, align 8, !tbaa !74
  %41 = icmp eq ptr %40, null
  br i1 %41, label %42, label %44

42:                                               ; preds = %37
  call void @ERR_new()
  call void @ERR_set_debug(ptr noundef @.str, i32 noundef 295, ptr noundef @__func__.ssl3_digest_cached_records)
  %43 = load ptr, ptr %4, align 8, !tbaa !3
  call void (ptr, i32, i32, ptr, ...) @ossl_statem_fatal(ptr noundef %43, i32 noundef 80, i32 noundef 297, ptr noundef null)
  store i32 0, ptr %3, align 4
  store i32 1, ptr %9, align 4
  br label %77

44:                                               ; preds = %37
  %45 = load ptr, ptr %4, align 8, !tbaa !3
  %46 = getelementptr inbounds nuw %struct.ssl_connection_st, ptr %45, i32 0, i32 24
  %47 = getelementptr inbounds nuw %struct.anon, ptr %46, i32 0, i32 4
  %48 = load ptr, ptr %47, align 8, !tbaa !108
  %49 = load ptr, ptr %6, align 8, !tbaa !74
  %50 = call i32 @EVP_DigestInit_ex(ptr noundef %48, ptr noundef %49, ptr noundef null)
  %51 = icmp ne i32 %50, 0
  br i1 %51, label %52, label %61

52:                                               ; preds = %44
  %53 = load ptr, ptr %4, align 8, !tbaa !3
  %54 = getelementptr inbounds nuw %struct.ssl_connection_st, ptr %53, i32 0, i32 24
  %55 = getelementptr inbounds nuw %struct.anon, ptr %54, i32 0, i32 4
  %56 = load ptr, ptr %55, align 8, !tbaa !108
  %57 = load ptr, ptr %8, align 8, !tbaa !109
  %58 = load i64, ptr %7, align 8, !tbaa !78
  %59 = call i32 @EVP_DigestUpdate(ptr noundef %56, ptr noundef %57, i64 noundef %58)
  %60 = icmp ne i32 %59, 0
  br i1 %60, label %63, label %61

61:                                               ; preds = %52, %44
  call void @ERR_new()
  call void @ERR_set_debug(ptr noundef @.str, i32 noundef 300, ptr noundef @__func__.ssl3_digest_cached_records)
  %62 = load ptr, ptr %4, align 8, !tbaa !3
  call void (ptr, i32, i32, ptr, ...) @ossl_statem_fatal(ptr noundef %62, i32 noundef 80, i32 noundef 786691, ptr noundef null)
  store i32 0, ptr %3, align 4
  store i32 1, ptr %9, align 4
  br label %77

63:                                               ; preds = %52
  br label %64

64:                                               ; preds = %63, %2
  %65 = load i32, ptr %5, align 4, !tbaa !8
  %66 = icmp eq i32 %65, 0
  br i1 %66, label %67, label %76

67:                                               ; preds = %64
  %68 = load ptr, ptr %4, align 8, !tbaa !3
  %69 = getelementptr inbounds nuw %struct.ssl_connection_st, ptr %68, i32 0, i32 24
  %70 = getelementptr inbounds nuw %struct.anon, ptr %69, i32 0, i32 3
  %71 = load ptr, ptr %70, align 8, !tbaa !107
  %72 = call i32 @BIO_free(ptr noundef %71)
  %73 = load ptr, ptr %4, align 8, !tbaa !3
  %74 = getelementptr inbounds nuw %struct.ssl_connection_st, ptr %73, i32 0, i32 24
  %75 = getelementptr inbounds nuw %struct.anon, ptr %74, i32 0, i32 3
  store ptr null, ptr %75, align 8, !tbaa !107
  br label %76

76:                                               ; preds = %67, %64
  store i32 1, ptr %3, align 4
  store i32 1, ptr %9, align 4
  br label %77

77:                                               ; preds = %76, %61, %42, %35, %23
  call void @llvm.lifetime.end.p0(i64 8, ptr %8) #7
  call void @llvm.lifetime.end.p0(i64 8, ptr %7) #7
  call void @llvm.lifetime.end.p0(i64 8, ptr %6) #7
  %78 = load i32, ptr %3, align 4
  ret i32 %78
}