; Function Attrs: nounwind uwtable
define range(i32 0, 2) i32 @ssl3_digest_cached_records(ptr noundef %0, i32 noundef %1) local_unnamed_addr #0 {
  %3 = alloca ptr, align 8
  call void @llvm.lifetime.start.p0(i64 8, ptr nonnull %3) #8
  %4 = getelementptr inbounds nuw i8, ptr %0, i64 432
  %5 = load ptr, ptr %4, align 8, !tbaa !101
  %6 = icmp eq ptr %5, null
  br i1 %6, label %7, label %29

7:                                                ; preds = %2
  %8 = getelementptr inbounds nuw i8, ptr %0, i64 424
  %9 = load ptr, ptr %8, align 8, !tbaa !100
  %10 = call i64 @BIO_ctrl(ptr noundef %9, i32 noundef 3, i64 noundef 0, ptr noundef nonnull %3) #8
  %11 = icmp slt i64 %10, 1
  br i1 %11, label %12, label %13

12:                                               ; preds = %7
  call void @ERR_new() #8
  call void @ERR_set_debug(ptr noundef nonnull @.str, i32 noundef 282, ptr noundef nonnull @__func__.ssl3_digest_cached_records) #8
  call void (ptr, i32, i32, ptr, ...) @ossl_statem_fatal(ptr noundef nonnull %0, i32 noundef 80, i32 noundef 332, ptr noundef null) #8
  br label %35

13:                                               ; preds = %7
  %14 = call ptr @EVP_MD_CTX_new() #8
  store ptr %14, ptr %4, align 8, !tbaa !101
  %15 = icmp eq ptr %14, null
  br i1 %15, label %16, label %17

16:                                               ; preds = %13
  call void @ERR_new() #8
  call void @ERR_set_debug(ptr noundef nonnull @.str, i32 noundef 288, ptr noundef nonnull @__func__.ssl3_digest_cached_records) #8
  call void (ptr, i32, i32, ptr, ...) @ossl_statem_fatal(ptr noundef nonnull %0, i32 noundef 80, i32 noundef 524294, ptr noundef null) #8
  br label %35

17:                                               ; preds = %13
  %18 = call ptr @ssl_handshake_md(ptr noundef nonnull %0) #8
  %19 = icmp eq ptr %18, null
  br i1 %19, label %20, label %21

20:                                               ; preds = %17
  call void @ERR_new() #8
  call void @ERR_set_debug(ptr noundef nonnull @.str, i32 noundef 295, ptr noundef nonnull @__func__.ssl3_digest_cached_records) #8
  call void (ptr, i32, i32, ptr, ...) @ossl_statem_fatal(ptr noundef nonnull %0, i32 noundef 80, i32 noundef 297, ptr noundef null) #8
  br label %35

21:                                               ; preds = %17
  %22 = load ptr, ptr %4, align 8, !tbaa !101
  %23 = call i32 @EVP_DigestInit_ex(ptr noundef %22, ptr noundef nonnull %18, ptr noundef null) #8
  %.not = icmp eq i32 %23, 0
  br i1 %.not, label %28, label %24

24:                                               ; preds = %21
  %25 = load ptr, ptr %4, align 8, !tbaa !101
  %26 = load ptr, ptr %3, align 8, !tbaa !102
  %27 = call i32 @EVP_DigestUpdate(ptr noundef %25, ptr noundef %26, i64 noundef %10) #8
  %.not20 = icmp eq i32 %27, 0
  br i1 %.not20, label %28, label %29

28:                                               ; preds = %24, %21
  call void @ERR_new() #8
  call void @ERR_set_debug(ptr noundef nonnull @.str, i32 noundef 300, ptr noundef nonnull @__func__.ssl3_digest_cached_records) #8
  call void (ptr, i32, i32, ptr, ...) @ossl_statem_fatal(ptr noundef nonnull %0, i32 noundef 80, i32 noundef 786691, ptr noundef null) #8
  br label %35

29:                                               ; preds = %24, %2
  %30 = icmp eq i32 %1, 0
  br i1 %30, label %31, label %35

31:                                               ; preds = %29
  %32 = getelementptr inbounds nuw i8, ptr %0, i64 424
  %33 = load ptr, ptr %32, align 8, !tbaa !100
  %34 = call i32 @BIO_free(ptr noundef %33) #8
  store ptr null, ptr %32, align 8, !tbaa !100
  br label %35

35:                                               ; preds = %29, %31, %28, %20, %16, %12
  %.0 = phi i32 [ 0, %12 ], [ 0, %16 ], [ 0, %20 ], [ 0, %28 ], [ 1, %31 ], [ 1, %29 ]
  call void @llvm.lifetime.end.p0(i64 8, ptr nonnull %3) #8
  ret i32 %.0
}